target datalayout = "e-m:e-p270:32:32-p271:32:32-p272:64:64-i64:64-i128:128-f80:128-n8:16:32:64-S128"
target triple = "x86_64-unknown-linux-gnu"

%"class.OpenColorIO_v2_4dev::RangeOpData" = type <{ %"class.OpenColorIO_v2_4dev::OpData", double, double, double, double, double, double, i32, i32, i32, [4 x i8] }>
%"class.OpenColorIO_v2_4dev::OpData" = type { ptr, %"class.std::mutex", %"class.OpenColorIO_v2_4dev::FormatMetadataImpl" }
%"class.std::mutex" = type { %"class.std::__mutex_base" }
%"class.std::__mutex_base" = type { %union.pthread_mutex_t }
%union.pthread_mutex_t = type { %struct.__pthread_mutex_s }
%struct.__pthread_mutex_s = type { i32, i32, i32, i32, i32, i16, i16, %struct.__pthread_internal_list }
%struct.__pthread_internal_list = type { ptr, ptr }
%"class.OpenColorIO_v2_4dev::FormatMetadataImpl" = type { %"class.OpenColorIO_v2_4dev::FormatMetadata", %"class.std::__cxx11::basic_string", %"class.std::__cxx11::basic_string", %"class.std::vector", %"class.std::vector.3" }
%"class.OpenColorIO_v2_4dev::FormatMetadata" = type { ptr }
%"class.std::__cxx11::basic_string" = type { %"struct.std::__cxx11::basic_string<char>::_Alloc_hider", i64, %union.anon }
%"struct.std::__cxx11::basic_string<char>::_Alloc_hider" = type { ptr }
%union.anon = type { i64, [8 x i8] }
%"class.std::vector" = type { %"struct.std::_Vector_base" }
%"struct.std::_Vector_base" = type { %"struct.std::_Vector_base<std::pair<std::__cxx11::basic_string<char>, std::__cxx11::basic_string<char>>, std::allocator<std::pair<std::__cxx11::basic_string<char>, std::__cxx11::basic_string<char>>>>::_Vector_impl" }
%"struct.std::_Vector_base<std::pair<std::__cxx11::basic_string<char>, std::__cxx11::basic_string<char>>, std::allocator<std::pair<std::__cxx11::basic_string<char>, std::__cxx11::basic_string<char>>>>::_Vector_impl" = type { %"struct.std::_Vector_base<std::pair<std::__cxx11::basic_string<char>, std::__cxx11::basic_string<char>>, std::allocator<std::pair<std::__cxx11::basic_string<char>, std::__cxx11::basic_string<char>>>>::_Vector_impl_data" }
%"struct.std::_Vector_base<std::pair<std::__cxx11::basic_string<char>, std::__cxx11::basic_string<char>>, std::allocator<std::pair<std::__cxx11::basic_string<char>, std::__cxx11::basic_string<char>>>>::_Vector_impl_data" = type { ptr, ptr, ptr }
%"class.std::vector.3" = type { %"struct.std::_Vector_base.4" }
%"struct.std::_Vector_base.4" = type { %"struct.std::_Vector_base<OpenColorIO_v2_4dev::FormatMetadataImpl, std::allocator<OpenColorIO_v2_4dev::FormatMetadataImpl>>::_Vector_impl" }
%"struct.std::_Vector_base<OpenColorIO_v2_4dev::FormatMetadataImpl, std::allocator<OpenColorIO_v2_4dev::FormatMetadataImpl>>::_Vector_impl" = type { %"struct.std::_Vector_base<OpenColorIO_v2_4dev::FormatMetadataImpl, std::allocator<OpenColorIO_v2_4dev::FormatMetadataImpl>>::_Vector_impl_data" }
%"struct.std::_Vector_base<OpenColorIO_v2_4dev::FormatMetadataImpl, std::allocator<OpenColorIO_v2_4dev::FormatMetadataImpl>>::_Vector_impl_data" = type { ptr, ptr, ptr }

@_ZTVN19OpenColorIO_v2_4dev6OpDataE = external unnamed_addr constant { [13 x ptr] }, align 8

; Function Attrs: mustprogress nounwind uwtable
define linkonce_odr hidden void @_ZN19OpenColorIO_v2_4dev6OpDataD2Ev(ptr noundef nonnull align 8 dereferenceable(168) %this) unnamed_addr #5 comdat align 2 {
entry:
  %this.addr = alloca ptr, align 8
  store ptr %this, ptr %this.addr, align 8
  %this1 = load ptr, ptr %this.addr, align 8
  store ptr getelementptr inbounds ({ [13 x ptr] }, ptr @_ZTVN19OpenColorIO_v2_4dev6OpDataE, i32 0, i32 0, i32 2), ptr %this1, align 8
  %m_metadata = getelementptr inbounds %"class.OpenColorIO_v2_4dev::OpData", ptr %this1, i32 0, i32 2
  call void @_ZN19OpenColorIO_v2_4dev18FormatMetadataImplD1Ev(ptr noundef nonnull align 8 dereferenceable(120) %m_metadata) #3
  ret void
}

; Function Attrs: mustprogress nounwind uwtable
define hidden void @_ZN19OpenColorIO_v2_4dev11RangeOpData12setDirectionENS_18TransformDirectionE(ptr noundef nonnull align 8 dereferenceable(228) %this, i32 noundef %dir) #5 align 2 {
entry:
  %this.addr = alloca ptr, align 8
  %dir.addr = alloca i32, align 4
  store ptr %this, ptr %this.addr, align 8
  store i32 %dir, ptr %dir.addr, align 4
  %this1 = load ptr, ptr %this.addr, align 8
  %0 = load i32, ptr %dir.addr, align 4
  %m_direction = getelementptr inbounds %"class.OpenColorIO_v2_4dev::RangeOpData", ptr %this1, i32 0, i32 9
  store i32 %0, ptr %m_direction, align 8
  ret void
}

; Function Attrs: mustprogress uwtable
define hidden void @_ZN19OpenColorIO_v2_4dev11RangeOpDataC2EddddNS_18TransformDirectionE(ptr noundef nonnull align 8 dereferenceable(228) %this, double noundef %minInValue, double noundef %maxInValue, double noundef %minOutValue, double noundef %maxOutValue, i32 noundef %dir) unnamed_addr #4 align 2 personality ptr @__gxx_personality_v0 {
entry:
  %this.addr = alloca ptr, align 8
  %minInValue.addr = alloca double, align 8
  %maxInValue.addr = alloca double, align 8
  %minOutValue.addr = alloca double, align 8
  %maxOutValue.addr = alloca double, align 8
  %dir.addr = alloca i32, align 4
  %exn.slot = alloca ptr, align 8
  %ehselector.slot = alloca i32, align 4
  store ptr %this, ptr %this.addr, align 8
  store double %minInValue, ptr %minInValue.addr, align 8
  store double %maxInValue, ptr %maxInValue.addr, align 8
  store double %minOutValue, ptr %minOutValue.addr, align 8
  store double %maxOutValue, ptr %maxOutValue.addr, align 8
  store i32 %dir, ptr %dir.addr, align 4
  %this1 = load ptr, ptr %this.addr, align 8
  call void @_ZN19OpenColorIO_v2_4dev6OpDataC2Ev(ptr noundef nonnull align 8 dereferenceable(168) %this1)
  store ptr getelementptr inbounds ({ [13 x ptr] }, ptr @_ZTVN19OpenColorIO_v2_4dev11RangeOpDataE, i32 0, i32 0, i32 2), ptr %this1, align 8
  %m_minInValue = getelementptr inbounds %"class.OpenColorIO_v2_4dev::RangeOpData", ptr %this1, i32 0, i32 1
  %0 = load double, ptr %minInValue.addr, align 8
  store double %0, ptr %m_minInValue, align 8
  %m_maxInValue = getelementptr inbounds %"class.OpenColorIO_v2_4dev::RangeOpData", ptr %this1, i32 0, i32 2
  %1 = load double, ptr %maxInValue.addr, align 8
  store double %1, ptr %m_maxInValue, align 8
  %m_minOutValue = getelementptr inbounds %"class.OpenColorIO_v2_4dev::RangeOpData", ptr %this1, i32 0, i32 3
  %2 = load double, ptr %minOutValue.addr, align 8
  store double %2, ptr %m_minOutValue, align 8
  %m_maxOutValue = getelementptr inbounds %"class.OpenColorIO_v2_4dev::RangeOpData", ptr %this1, i32 0, i32 4
  %3 = load double, ptr %maxOutValue.addr, align 8
  store double %3, ptr %m_maxOutValue, align 8
  %m_scale = getelementptr inbounds %"class.OpenColorIO_v2_4dev::RangeOpData", ptr %this1, i32 0, i32 5
  store double 0.000000e+00, ptr %m_scale, align 8
  %m_offset = getelementptr inbounds %"class.OpenColorIO_v2_4dev::RangeOpData", ptr %this1, i32 0, i32 6
  store double 0.000000e+00, ptr %m_offset, align 8
  %m_fileInBitDepth = getelementptr inbounds %"class.OpenColorIO_v2_4dev::RangeOpData", ptr %this1, i32 0, i32 7
  store i32 0, ptr %m_fileInBitDepth, align 8
  %m_fileOutBitDepth = getelementptr inbounds %"class.OpenColorIO_v2_4dev::RangeOpData", ptr %this1, i32 0, i32 8
  store i32 0, ptr %m_fileOutBitDepth, align 4
  %m_direction = getelementptr inbounds %"class.OpenColorIO_v2_4dev::RangeOpData", ptr %this1, i32 0, i32 9
  store i32 0, ptr %m_direction, align 8
  %4 = load i32, ptr %dir.addr, align 4
  call void @_ZN19OpenColorIO_v2_4dev11RangeOpData12setDirectionENS_18TransformDirectionE(ptr noundef nonnull align 8 dereferenceable(228) %this1, i32 noundef %4) #3
  %vtable = load ptr, ptr %this1, align 8
  %vfn = getelementptr inbounds ptr, ptr %vtable, i64 2
  %5 = load ptr, ptr %vfn, align 8
  invoke void %5(ptr noundef nonnull align 8 dereferenceable(228) %this1)
          to label %invoke.cont unwind label %lpad

invoke.cont:                                      ; preds = %entry
  ret void

lpad:                                             ; preds = %entry
  %6 = landingpad { ptr, i32 }
          cleanup
  %7 = extractvalue { ptr, i32 } %6, 0
  store ptr %7, ptr %exn.slot, align 8
  %8 = extractvalue { ptr, i32 } %6, 1
  store i32 %8, ptr %ehselector.slot, align 4
  call void @_ZN19OpenColorIO_v2_4dev6OpDataD2Ev(ptr noundef nonnull align 8 dereferenceable(168) %this1) #3
  br label %eh.resume

eh.resume:                                        ; preds = %lpad
  %exn = load ptr, ptr %exn.slot, align 8
  %sel = load i32, ptr %ehselector.slot, align 4
  %lpad.val = insertvalue { ptr, i32 } poison, ptr %exn, 0
  %lpad.val2 = insertvalue { ptr, i32 } %lpad.val, i32 %sel, 1
  resume { ptr, i32 } %lpad.val2
}